target datalayout = "e-m:e-p270:32:32-p271:32:32-p272:64:64-i64:64-i128:128-f80:128-n8:16:32:64-S128"
target triple = "x86_64-pc-linux-gnu"

@.str = private unnamed_addr constant [19 x i32] [i32 100, i32 105, i32 111, i32 117, i32 120, i32 88, i32 101, i32 69, i32 102, i32 103, i32 71, i32 97, i32 65, i32 99, i32 115, i32 112, i32 110, i32 37, i32 0], align 4

; Function Attrs: mustprogress nounwind uwtable
define noundef zeroext i1 @_ZN4base23IsWprintfFormatPortableEPKw(ptr noundef %0) #0 {
  %2 = alloca i1, align 1
  %3 = alloca ptr, align 8
  %4 = alloca ptr, align 8
  %5 = alloca i32, align 4
  %6 = alloca i8, align 1
  %7 = alloca i8, align 1
  store ptr %0, ptr %3, align 8, !tbaa !3
  call void @llvm.lifetime.start.p0(i64 8, ptr %4) #17
  %8 = load ptr, ptr %3, align 8, !tbaa !3
  store ptr %8, ptr %4, align 8, !tbaa !3
  br label %9

9:                                                ; preds = %82, %1
  %10 = load ptr, ptr %4, align 8, !tbaa !3
  %11 = load i32, ptr %10, align 4, !tbaa !8
  %12 = icmp ne i32 %11, 0
  br i1 %12, label %14, label %13

13:                                               ; preds = %9
  store i32 2, ptr %5, align 4
  br label %85

14:                                               ; preds = %9
  %15 = load ptr, ptr %4, align 8, !tbaa !3
  %16 = load i32, ptr %15, align 4, !tbaa !8
  %17 = icmp eq i32 %16, 37
  br i1 %17, label %18, label %81

18:                                               ; preds = %14
  call void @llvm.lifetime.start.p0(i64 1, ptr %6) #17
  store i8 1, ptr %6, align 1, !tbaa !10
  call void @llvm.lifetime.start.p0(i64 1, ptr %7) #17
  store i8 0, ptr %7, align 1, !tbaa !10
  br label %19

19:                                               ; preds = %76, %18
  %20 = load i8, ptr %6, align 1, !tbaa !10, !range !12, !noundef !13
  %21 = trunc i8 %20 to i1
  br i1 %21, label %22, label %77

22:                                               ; preds = %19
  %23 = load ptr, ptr %4, align 8, !tbaa !3
  %24 = getelementptr inbounds nuw i32, ptr %23, i32 1
  store ptr %24, ptr %4, align 8, !tbaa !3
  %25 = load i32, ptr %24, align 4, !tbaa !8
  %26 = icmp eq i32 %25, 0
  br i1 %26, label %27, label %28

27:                                               ; preds = %22
  store i1 true, ptr %2, align 1
  store i32 1, ptr %5, align 4
  br label %78

28:                                               ; preds = %22
  %29 = load ptr, ptr %4, align 8, !tbaa !3
  %30 = load i32, ptr %29, align 4, !tbaa !8
  %31 = icmp eq i32 %30, 108
  br i1 %31, label %32, label %33

32:                                               ; preds = %28
  store i8 1, ptr %7, align 1, !tbaa !10
  br label %70

33:                                               ; preds = %28
  %34 = load ptr, ptr %4, align 8, !tbaa !3
  %35 = load i32, ptr %34, align 4, !tbaa !8
  %36 = icmp eq i32 %35, 115
  br i1 %36, label %41, label %37

37:                                               ; preds = %33
  %38 = load ptr, ptr %4, align 8, !tbaa !3
  %39 = load i32, ptr %38, align 4, !tbaa !8
  %40 = icmp eq i32 %39, 99
  br i1 %40, label %41, label %44

41:                                               ; preds = %37, %33
  %42 = load i8, ptr %7, align 1, !tbaa !10, !range !12, !noundef !13
  %43 = trunc i8 %42 to i1
  br i1 %43, label %44, label %68

44:                                               ; preds = %41, %37
  %45 = load ptr, ptr %4, align 8, !tbaa !3
  %46 = load i32, ptr %45, align 4, !tbaa !8
  %47 = icmp eq i32 %46, 83
  br i1 %47, label %68, label %48

48:                                               ; preds = %44
  %49 = load ptr, ptr %4, align 8, !tbaa !3
  %50 = load i32, ptr %49, align 4, !tbaa !8
  %51 = icmp eq i32 %50, 67
  br i1 %51, label %68, label %52

52:                                               ; preds = %48
  %53 = load ptr, ptr %4, align 8, !tbaa !3
  %54 = load i32, ptr %53, align 4, !tbaa !8
  %55 = icmp eq i32 %54, 70
  br i1 %55, label %68, label %56

56:                                               ; preds = %52
  %57 = load ptr, ptr %4, align 8, !tbaa !3
  %58 = load i32, ptr %57, align 4, !tbaa !8
  %59 = icmp eq i32 %58, 68
  br i1 %59, label %68, label %60

60:                                               ; preds = %56
  %61 = load ptr, ptr %4, align 8, !tbaa !3
  %62 = load i32, ptr %61, align 4, !tbaa !8
  %63 = icmp eq i32 %62, 79
  br i1 %63, label %68, label %64

64:                                               ; preds = %60
  %65 = load ptr, ptr %4, align 8, !tbaa !3
  %66 = load i32, ptr %65, align 4, !tbaa !8
  %67 = icmp eq i32 %66, 85
  br i1 %67, label %68, label %69

68:                                               ; preds = %64, %60, %56, %52, %48, %44, %41
  store i1 false, ptr %2, align 1
  store i32 1, ptr %5, align 4
  br label %78

69:                                               ; preds = %64
  br label %70

70:                                               ; preds = %69, %32
  %71 = load ptr, ptr %4, align 8, !tbaa !3
  %72 = load i32, ptr %71, align 4, !tbaa !8
  %73 = call ptr @wcschr(ptr noundef @.str, i32 noundef signext %72) #18
  %74 = icmp ne ptr %73, null
  br i1 %74, label %75, label %76

75:                                               ; preds = %70
  store i8 0, ptr %6, align 1, !tbaa !10
  br label %76

76:                                               ; preds = %75, %70
  br label %19, !llvm.loop !14

77:                                               ; preds = %19
  store i32 0, ptr %5, align 4
  br label %78

78:                                               ; preds = %77, %68, %27
  call void @llvm.lifetime.end.p0(i64 1, ptr %7) #17
  call void @llvm.lifetime.end.p0(i64 1, ptr %6) #17
  %79 = load i32, ptr %5, align 4
  switch i32 %79, label %85 [
    i32 0, label %80
  ]

80:                                               ; preds = %78
  br label %81

81:                                               ; preds = %80, %14
  br label %82

82:                                               ; preds = %81
  %83 = load ptr, ptr %4, align 8, !tbaa !3
  %84 = getelementptr inbounds nuw i32, ptr %83, i32 1
  store ptr %84, ptr %4, align 8, !tbaa !3
  br label %9, !llvm.loop !16

85:                                               ; preds = %78, %13
  call void @llvm.lifetime.end.p0(i64 8, ptr %4) #17
  %86 = load i32, ptr %5, align 4
  switch i32 %86, label %90 [
    i32 2, label %87
    i32 1, label %88
  ]

87:                                               ; preds = %85
  store i1 true, ptr %2, align 1
  br label %88

88:                                               ; preds = %87, %85
  %89 = load i1, ptr %2, align 1
  ret i1 %89

90:                                               ; preds = %85
  unreachable
}