; Function Attrs: mustprogress nofree nounwind willreturn memory(read) uwtable
define noundef zeroext i1 @_ZN4base23IsWprintfFormatPortableEPKw(ptr noundef readonly captures(none) %0) local_unnamed_addr #0 {
  br label %2

2:                                                ; preds = %.loopexit, %1
  %.023 = phi ptr [ %0, %1 ], [ %9, %.loopexit ]
  %3 = load i32, ptr %.023, align 4, !tbaa !3
  switch i32 %3, label %.loopexit [
    i32 0, label %.thread
    i32 37, label %.preheader
  ]

.preheader:                                       ; preds = %2, %7
  %.041 = phi i1 [ %.1, %7 ], [ false, %2 ]
  %.12439 = phi ptr [ %4, %7 ], [ %.023, %2 ]
  %4 = getelementptr inbounds nuw i8, ptr %.12439, i64 4
  %5 = load i32, ptr %4, align 4, !tbaa !3
  switch i32 %5, label %.fold.split [
    i32 0, label %.thread.loopexit
    i32 108, label %7
    i32 115, label %6
    i32 99, label %6
    i32 83, label %.thread
    i32 67, label %.thread
    i32 70, label %.thread
    i32 68, label %.thread
    i32 79, label %.thread
    i32 85, label %.thread
  ]

6:                                                ; preds = %.preheader, %.preheader
  br i1 %.041, label %.fold.split, label %.thread.loopexit

.fold.split:                                      ; preds = %6, %.preheader
  br label %7

7:                                                ; preds = %.preheader, %.fold.split
  %.1 = phi i1 [ true, %.preheader ], [ %.041, %.fold.split ]
  %8 = tail call ptr @wcschr(ptr noundef nonnull @.str, i32 noundef signext %5) #25
  %.not32 = icmp eq ptr %8, null
  br i1 %.not32, label %.preheader, label %.loopexit, !llvm.loop !7

.loopexit:                                        ; preds = %7, %2
  %.3 = phi ptr [ %.023, %2 ], [ %4, %7 ]
  %9 = getelementptr inbounds nuw i8, ptr %.3, i64 4
  br label %2, !llvm.loop !9

.thread.loopexit:                                 ; preds = %6, %.preheader
  %.126.ph = phi i1 [ true, %.preheader ], [ false, %6 ]
  br label %.thread

.thread:                                          ; preds = %2, %.preheader, %.preheader, %.preheader, %.preheader, %.preheader, %.preheader, %.thread.loopexit
  %.126 = phi i1 [ %.126.ph, %.thread.loopexit ], [ false, %.preheader ], [ false, %.preheader ], [ false, %.preheader ], [ false, %.preheader ], [ false, %.preheader ], [ false, %.preheader ], [ undef, %2 ]
  %switch = phi i1 [ false, %.thread.loopexit ], [ false, %.preheader ], [ false, %.preheader ], [ false, %.preheader ], [ false, %.preheader ], [ false, %.preheader ], [ false, %.preheader ], [ true, %2 ]
  %spec.select33 = or i1 %.126, %switch
  ret i1 %spec.select33
}